; Function Attrs: nounwind uwtable
define ptr @l_Lean_Server_FileWorker_collectSyntaxBasedSemanticTokens___lambda__1(ptr noundef %0, ptr noundef %1, ptr noundef %2, ptr readnone captures(none) %3) local_unnamed_addr #0 {
  %5 = load ptr, ptr @l_Lean_Server_FileWorker_keywordSemanticTokenMap, align 8, !tbaa !11
  %6 = tail call ptr @l_Lean_RBNode_find___at_Lean_Server_FileWorker_collectSyntaxBasedSemanticTokens___spec__1(ptr noundef %5, ptr noundef %0)
  %7 = ptrtoint ptr %6 to i64
  %8 = and i64 %7, 1
  %.not.i25 = icmp eq i64 %8, 0
  br i1 %.not.i25, label %12, label %9

9:                                                ; preds = %4
  %10 = lshr i64 %7, 1
  %11 = trunc i64 %10 to i32
  br label %lean_obj_tag.exit

12:                                               ; preds = %4
  %13 = getelementptr i8, ptr %6, i64 4
  %.val.i = load i32, ptr %13, align 4
  %14 = lshr i32 %.val.i, 24
  br label %lean_obj_tag.exit

lean_obj_tag.exit:                                ; preds = %9, %12
  %.0.i = phi i32 [ %11, %9 ], [ %14, %12 ]
  %15 = icmp eq i32 %.0.i, 0
  br i1 %15, label %16, label %23

16:                                               ; preds = %lean_obj_tag.exit
  tail call void @lean_inc_heartbeat() #7
  %17 = tail call noalias ptr @mi_malloc_small(i64 noundef 24) #7
  %18 = icmp eq ptr %17, null
  br i1 %18, label %19, label %lean_alloc_ctor.exit

19:                                               ; preds = %16
  tail call void @lean_internal_panic_out_of_memory() #8
  unreachable

lean_alloc_ctor.exit:                             ; preds = %16
  %20 = getelementptr inbounds nuw i8, ptr %17, i64 4
  %21 = getelementptr inbounds nuw i8, ptr %17, i64 16
  store i64 0, ptr %21, align 8, !tbaa !4
  store i32 1, ptr %17, align 4, !tbaa !8
  store i32 65560, ptr %20, align 4
  %22 = getelementptr inbounds nuw i8, ptr %17, i64 8
  store ptr %1, ptr %22, align 8, !tbaa !11
  br label %56

23:                                               ; preds = %lean_obj_tag.exit
  %24 = getelementptr inbounds nuw i8, ptr %6, i64 8
  %25 = load ptr, ptr %24, align 8, !tbaa !11
  %26 = ptrtoint ptr %25 to i64
  %27 = and i64 %26, 1
  %.not = icmp eq i64 %27, 0
  br i1 %.not, label %28, label %lean_inc.exit

28:                                               ; preds = %23
  %.val.i26 = load i32, ptr %25, align 4, !tbaa !8
  %29 = icmp sgt i32 %.val.i26, 0
  br i1 %29, label %30, label %32, !prof !14

30:                                               ; preds = %28
  %31 = add nuw i32 %.val.i26, 1
  store i32 %31, ptr %25, align 4, !tbaa !8
  br label %lean_inc.exit

32:                                               ; preds = %28
  %.not.i27 = icmp eq i32 %.val.i26, 0
  br i1 %.not.i27, label %lean_inc.exit, label %33

33:                                               ; preds = %32
  tail call void @lean_inc_ref_cold(ptr noundef nonnull %25) #7
  br label %lean_inc.exit

lean_inc.exit:                                    ; preds = %33, %32, %30, %23
  br i1 %.not.i25, label %34, label %lean_dec.exit22

34:                                               ; preds = %lean_inc.exit
  %35 = load i32, ptr %6, align 4, !tbaa !8
  %36 = icmp sgt i32 %35, 1
  br i1 %36, label %37, label %39, !prof !14

37:                                               ; preds = %34
  %38 = add nsw i32 %35, -1
  store i32 %38, ptr %6, align 4, !tbaa !8
  br label %lean_dec.exit22

39:                                               ; preds = %34
  %.not.i = icmp eq i32 %35, 0
  br i1 %.not.i, label %lean_dec.exit22, label %40

40:                                               ; preds = %39
  tail call void @lean_dec_ref_cold(ptr noundef nonnull %6) #7
  br label %lean_dec.exit22

lean_dec.exit22:                                  ; preds = %40, %39, %37, %lean_inc.exit
  tail call void @lean_inc_heartbeat() #7
  %41 = tail call noalias ptr @mi_malloc_small(i64 noundef 24) #7
  %42 = icmp eq ptr %41, null
  br i1 %42, label %43, label %lean_alloc_ctor.exit29

43:                                               ; preds = %lean_dec.exit22
  tail call void @lean_internal_panic_out_of_memory() #8
  unreachable

lean_alloc_ctor.exit29:                           ; preds = %lean_dec.exit22
  %44 = getelementptr inbounds nuw i8, ptr %41, i64 4
  %45 = getelementptr inbounds nuw i8, ptr %41, i64 16
  store i64 0, ptr %45, align 8, !tbaa !4
  store i32 1, ptr %41, align 4, !tbaa !8
  store i32 65560, ptr %44, align 4
  %46 = getelementptr inbounds nuw i8, ptr %41, i64 8
  store ptr %1, ptr %46, align 8, !tbaa !11
  %47 = lshr i64 %26, 1
  %48 = trunc i64 %47 to i8
  br i1 %.not, label %49, label %lean_dec.exit

49:                                               ; preds = %lean_alloc_ctor.exit29
  %50 = load i32, ptr %25, align 4, !tbaa !8
  %51 = icmp sgt i32 %50, 1
  br i1 %51, label %52, label %54, !prof !14

52:                                               ; preds = %49
  %53 = add nsw i32 %50, -1
  store i32 %53, ptr %25, align 4, !tbaa !8
  br label %lean_dec.exit

54:                                               ; preds = %49
  %.not.i23 = icmp eq i32 %50, 0
  br i1 %.not.i23, label %lean_dec.exit, label %55

55:                                               ; preds = %54
  tail call void @lean_dec_ref_cold(ptr noundef nonnull %25) #7
  br label %lean_dec.exit

lean_dec.exit:                                    ; preds = %55, %54, %52, %lean_alloc_ctor.exit29
  store i8 %48, ptr %45, align 1, !tbaa !13
  br label %56

56:                                               ; preds = %lean_dec.exit, %lean_alloc_ctor.exit
  %.sink = phi ptr [ %41, %lean_dec.exit ], [ %17, %lean_alloc_ctor.exit ]
  %57 = tail call ptr @lean_array_push(ptr noundef %2, ptr noundef nonnull %.sink) #7
  ret ptr %57
}